target datalayout = "e-m:e-p270:32:32-p271:32:32-p272:64:64-i64:64-i128:128-f80:128-n8:16:32:64-S128"
target triple = "x86_64-pc-linux-gnu"

%"class.sat::cleaner" = type { ptr, i32, i32, i32, i32 }

@.str.2 = private unnamed_addr constant [17 x i8] c"sat elim clauses\00", align 1
@.str.3 = private unnamed_addr constant [18 x i8] c"sat elim literals\00", align 1

; Function Attrs: mustprogress uwtable
define hidden void @_ZNK3sat7cleaner18collect_statisticsER10statistics(ptr noundef nonnull align 8 dereferenceable(24) %0, ptr noundef nonnull align 8 dereferenceable(16) %1) #4 align 2 {
  %3 = alloca ptr, align 8
  %4 = alloca ptr, align 8
  store ptr %0, ptr %3, align 8, !tbaa !3
  store ptr %1, ptr %4, align 8, !tbaa !216
  %5 = load ptr, ptr %3, align 8
  %6 = load ptr, ptr %4, align 8, !tbaa !216
  %7 = getelementptr inbounds nuw %"class.sat::cleaner", ptr %5, i32 0, i32 3
  %8 = load i32, ptr %7, align 8, !tbaa !14
  call void @_ZN10statistics6updateEPKcj(ptr noundef nonnull align 8 dereferenceable(16) %6, ptr noundef @.str.2, i32 noundef %8)
  %9 = load ptr, ptr %4, align 8, !tbaa !216
  %10 = getelementptr inbounds nuw %"class.sat::cleaner", ptr %5, i32 0, i32 4
  %11 = load i32, ptr %10, align 4, !tbaa !15
  call void @_ZN10statistics6updateEPKcj(ptr noundef nonnull align 8 dereferenceable(16) %9, ptr noundef @.str.3, i32 noundef %11)
  ret void
}